; ModuleID = '20/429.c'
source_filename = "20/429.c"
target datalayout = "e-m:e-p270:32:32-p271:32:32-p272:64:64-i64:64-f80:128-n8:16:32:64-S128"
target triple = "x86_64-pc-linux-gnu"

@.str = private unnamed_addr constant [3 x i8] c"%c\00", align 1
@.str.1 = private unnamed_addr constant [2 x i8] c"\0A\00", align 1
@.str.2 = private unnamed_addr constant [5 x i8] c"%s%s\00", align 1

; Function Attrs: noinline nounwind uwtable
define dso_local void @dd(i8* %0, i8* %1) #0 {
  %3 = alloca i8*, align 8
  %4 = alloca i8*, align 8
  %5 = alloca i32, align 4
  %6 = alloca i32, align 4
  %7 = alloca i32, align 4
  %8 = alloca i32, align 4
  store i8* %0, i8** %3, align 8
  store i8* %1, i8** %4, align 8
  store i32 0, i32* %6, align 4
  %9 = load i8*, i8** %3, align 8
  %10 = call i64 @strlen(i8* %9) #3
  %11 = trunc i64 %10 to i32
  store i32 %11, i32* %7, align 4
  %12 = load i8*, i8** %3, align 8
  %13 = getelementptr inbounds i8, i8* %12, i64 0
  %14 = load i8, i8* %13, align 1
  %15 = sext i8 %14 to i32
  store i32 %15, i32* %8, align 4
  store i32 0, i32* %5, align 4
  br label %16

16:                                               ; preds = %38, %2
  %17 = load i32, i32* %5, align 4
  %18 = load i32, i32* %7, align 4
  %19 = icmp slt i32 %17, %18
  br i1 %19, label %20, label %41

20:                                               ; preds = %16
  %21 = load i8*, i8** %3, align 8
  %22 = load i32, i32* %5, align 4
  %23 = sext i32 %22 to i64
  %24 = getelementptr inbounds i8, i8* %21, i64 %23
  %25 = load i8, i8* %24, align 1
  %26 = sext i8 %25 to i32
  %27 = load i32, i32* %8, align 4
  %28 = icmp sgt i32 %26, %27
  br i1 %28, label %29, label %37

29:                                               ; preds = %20
  %30 = load i8*, i8** %3, align 8
  %31 = load i32, i32* %5, align 4
  %32 = sext i32 %31 to i64
  %33 = getelementptr inbounds i8, i8* %30, i64 %32
  %34 = load i8, i8* %33, align 1
  %35 = sext i8 %34 to i32
  store i32 %35, i32* %8, align 4
  %36 = load i32, i32* %5, align 4
  store i32 %36, i32* %6, align 4
  br label %37

37:                                               ; preds = %29, %20
  br label %38

38:                                               ; preds = %37
  %39 = load i32, i32* %5, align 4
  %40 = add nsw i32 %39, 1
  store i32 %40, i32* %5, align 4
  br label %16

41:                                               ; preds = %16
  %42 = load i32, i32* %7, align 4
  store i32 %42, i32* %5, align 4
  br label %43

43:                                               ; preds = %58, %41
  %44 = load i32, i32* %5, align 4
  %45 = load i32, i32* %6, align 4
  %46 = icmp sgt i32 %44, %45
  br i1 %46, label %47, label %61

47:                                               ; preds = %43
  %48 = load i8*, i8** %3, align 8
  %49 = load i32, i32* %5, align 4
  %50 = sext i32 %49 to i64
  %51 = getelementptr inbounds i8, i8* %48, i64 %50
  %52 = load i8, i8* %51, align 1
  %53 = load i8*, i8** %3, align 8
  %54 = load i32, i32* %5, align 4
  %55 = add nsw i32 %54, 3
  %56 = sext i32 %55 to i64
  %57 = getelementptr inbounds i8, i8* %53, i64 %56
  store i8 %52, i8* %57, align 1
  br label %58

58:                                               ; preds = %47
  %59 = load i32, i32* %5, align 4
  %60 = add nsw i32 %59, -1
  store i32 %60, i32* %5, align 4
  br label %43

61:                                               ; preds = %43
  %62 = load i8*, i8** %4, align 8
  %63 = getelementptr inbounds i8, i8* %62, i64 0
  %64 = load i8, i8* %63, align 1
  %65 = load i8*, i8** %3, align 8
  %66 = load i32, i32* %6, align 4
  %67 = add nsw i32 %66, 1
  %68 = sext i32 %67 to i64
  %69 = getelementptr inbounds i8, i8* %65, i64 %68
  store i8 %64, i8* %69, align 1
  %70 = load i8*, i8** %4, align 8
  %71 = getelementptr inbounds i8, i8* %70, i64 1
  %72 = load i8, i8* %71, align 1
  %73 = load i8*, i8** %3, align 8
  %74 = load i32, i32* %6, align 4
  %75 = add nsw i32 %74, 2
  %76 = sext i32 %75 to i64
  %77 = getelementptr inbounds i8, i8* %73, i64 %76
  store i8 %72, i8* %77, align 1
  %78 = load i8*, i8** %4, align 8
  %79 = getelementptr inbounds i8, i8* %78, i64 2
  %80 = load i8, i8* %79, align 1
  %81 = load i8*, i8** %3, align 8
  %82 = load i32, i32* %6, align 4
  %83 = add nsw i32 %82, 3
  %84 = sext i32 %83 to i64
  %85 = getelementptr inbounds i8, i8* %81, i64 %84
  store i8 %80, i8* %85, align 1
  store i32 0, i32* %5, align 4
  br label %86

86:                                               ; preds = %99, %61
  %87 = load i32, i32* %5, align 4
  %88 = load i32, i32* %7, align 4
  %89 = add nsw i32 %88, 3
  %90 = icmp slt i32 %87, %89
  br i1 %90, label %91, label %102

91:                                               ; preds = %86
  %92 = load i8*, i8** %3, align 8
  %93 = load i32, i32* %5, align 4
  %94 = sext i32 %93 to i64
  %95 = getelementptr inbounds i8, i8* %92, i64 %94
  %96 = load i8, i8* %95, align 1
  %97 = sext i8 %96 to i32
  %98 = call i32 (i8*, ...) @printf(i8* getelementptr inbounds ([3 x i8], [3 x i8]* @.str, i64 0, i64 0), i32 %97)
  br label %99

99:                                               ; preds = %91
  %100 = load i32, i32* %5, align 4
  %101 = add nsw i32 %100, 1
  store i32 %101, i32* %5, align 4
  br label %86

102:                                              ; preds = %86
  %103 = call i32 (i8*, ...) @printf(i8* getelementptr inbounds ([2 x i8], [2 x i8]* @.str.1, i64 0, i64 0))
  ret void
}

; Function Attrs: nounwind readonly
declare dso_local i64 @strlen(i8*) #1

declare dso_local i32 @printf(i8*, ...) #2

; Function Attrs: noinline nounwind uwtable
define dso_local void @main() #0 {
  %1 = alloca [20 x i8], align 16
  %2 = alloca [5 x i8], align 1
  br label %3

3:                                                ; preds = %8, %0
  %4 = getelementptr inbounds [20 x i8], [20 x i8]* %1, i64 0, i64 0
  %5 = getelementptr inbounds [5 x i8], [5 x i8]* %2, i64 0, i64 0
  %6 = call i32 (i8*, ...) @__isoc99_scanf(i8* getelementptr inbounds ([5 x i8], [5 x i8]* @.str.2, i64 0, i64 0), i8* %4, i8* %5)
  %7 = icmp ne i32 %6, -1
  br i1 %7, label %8, label %11

8:                                                ; preds = %3
  %9 = getelementptr inbounds [20 x i8], [20 x i8]* %1, i64 0, i64 0
  %10 = getelementptr inbounds [5 x i8], [5 x i8]* %2, i64 0, i64 0
  call void @dd(i8* %9, i8* %10)
  br label %3

11:                                               ; preds = %3
  ret void
}

declare dso_local i32 @__isoc99_scanf(i8*, ...) #2


!llvm.module.flags = !{!0}
!llvm.ident = !{!1}

!0 = !{i32 1, !"wchar_size", i32 4}
!1 = !{!"clang version 10.0.0-4ubuntu1 "}
